; Function Attrs: mustprogress uwtable
define void @_ZN6icu_7519InitialTimeZoneRuleC2ERKS0_(ptr noundef nonnull align 8 dereferenceable(80) %this, ptr noundef nonnull align 8 dereferenceable(80) %source) unnamed_addr #0 align 2 personality ptr @__gxx_personality_v0 {
entry:
  store ptr getelementptr inbounds ({ [13 x ptr] }, ptr @_ZTVN6icu_7512TimeZoneRuleE, i64 0, i32 0, i64 2), ptr %this, align 8
  %fName.i = getelementptr inbounds i8, ptr %this, i64 8
  %fName2.i = getelementptr inbounds i8, ptr %source, i64 8
  invoke void @_ZN6icu_7513UnicodeStringC1ERKS0_(ptr noundef nonnull align 8 dereferenceable(64) %fName.i, ptr noundef nonnull align 8 dereferenceable(64) %fName2.i)
          to label %_ZN6icu_7512TimeZoneRuleC2ERKS0_.exit unwind label %lpad.i

lpad.i:                                           ; preds = %entry
  %0 = landingpad { ptr, i32 }
          cleanup
  tail call void @_ZN6icu_757UObjectD2Ev(ptr noundef nonnull align 8 dereferenceable(8) %this) #16
  resume { ptr, i32 } %0

_ZN6icu_7512TimeZoneRuleC2ERKS0_.exit:            ; preds = %entry
  %fRawOffset.i = getelementptr inbounds i8, ptr %this, i64 72
  %fRawOffset3.i = getelementptr inbounds i8, ptr %source, i64 72
  %1 = load i32, ptr %fRawOffset3.i, align 8
  store i32 %1, ptr %fRawOffset.i, align 8
  %fDSTSavings.i = getelementptr inbounds i8, ptr %this, i64 76
  %fDSTSavings4.i = getelementptr inbounds i8, ptr %source, i64 76
  %2 = load i32, ptr %fDSTSavings4.i, align 4
  store i32 %2, ptr %fDSTSavings.i, align 4
  store ptr getelementptr inbounds ({ [13 x ptr] }, ptr @_ZTVN6icu_7519InitialTimeZoneRuleE, i64 0, i32 0, i64 2), ptr %this, align 8
  ret void
}